; Function Attrs: nounwind uwtable
define range(i32 0, 2) i32 @ossl_quic_channel_schedule_new_token(ptr noundef readonly captures(none) %0, ptr noundef %1, i64 noundef %2) local_unnamed_addr #0 {
  %4 = alloca %struct.wpacket_st, align 8
  %5 = alloca i64, align 8
  call void @llvm.lifetime.start.p0(i64 56, ptr nonnull %4) #15
  call void @llvm.lifetime.start.p0(i64 8, ptr nonnull %5) #15
  store i64 0, ptr %5, align 8, !tbaa !71
  %6 = tail call ptr @BUF_MEM_new() #15
  %7 = icmp eq ptr %6, null
  br i1 %7, label %.thread, label %8

8:                                                ; preds = %3
  %9 = call i32 @WPACKET_init(ptr noundef nonnull %4, ptr noundef nonnull %6) #15
  %.not = icmp eq i32 %9, 0
  br i1 %.not, label %.thread, label %10

10:                                               ; preds = %8
  %11 = call i32 @ossl_quic_wire_encode_frame_new_token(ptr noundef nonnull %4, ptr noundef %1, i64 noundef %2) #15
  %.not11 = icmp eq i32 %11, 0
  br i1 %.not11, label %12, label %13

12:                                               ; preds = %10
  call void @WPACKET_cleanup(ptr noundef nonnull %4) #15
  br label %.thread

13:                                               ; preds = %10
  %14 = call i32 @WPACKET_finish(ptr noundef nonnull %4) #15
  %15 = call i32 @WPACKET_get_total_written(ptr noundef nonnull %4, ptr noundef nonnull %5) #15
  %.not12 = icmp eq i32 %15, 0
  br i1 %.not12, label %.thread, label %16

16:                                               ; preds = %13
  %17 = getelementptr inbounds nuw i8, ptr %0, i64 232
  %18 = load ptr, ptr %17, align 8, !tbaa !74
  %19 = getelementptr inbounds nuw i8, ptr %6, i64 8
  %20 = load ptr, ptr %19, align 8, !tbaa !173
  %21 = load i64, ptr %5, align 8, !tbaa !71
  %22 = call ptr @ossl_quic_cfq_add_frame(ptr noundef %18, i32 noundef 1, i32 noundef 2, i64 noundef 7, i32 noundef 0, ptr noundef %20, i64 noundef %21, ptr noundef nonnull @free_buf_mem, ptr noundef nonnull %6) #15
  %23 = icmp eq ptr %22, null
  br i1 %23, label %.thread, label %24

.thread:                                          ; preds = %8, %12, %13, %3, %16
  call void @BUF_MEM_free(ptr noundef %6) #15
  br label %24

24:                                               ; preds = %.thread, %16
  %.017 = phi i32 [ 0, %.thread ], [ 1, %16 ]
  call void @llvm.lifetime.end.p0(i64 8, ptr nonnull %5) #15
  call void @llvm.lifetime.end.p0(i64 56, ptr nonnull %4) #15
  ret i32 %.017
}